target datalayout = "e-m:e-p270:32:32-p271:32:32-p272:64:64-i64:64-i128:128-f80:128-n8:16:32:64-S128"
target triple = "x86_64-pc-linux-gnu"

; Function Attrs: mustprogress nounwind uwtable
define void @_ZN15colvarbias_metaD1Ev(ptr noundef nonnull align 8 dereferenceable(880) %0) unnamed_addr #1 align 2 {
  %2 = alloca ptr, align 8
  store ptr %0, ptr %2, align 8
  %3 = load ptr, ptr %2, align 8
  call void @_ZN15colvarbias_metaD2Ev(ptr noundef nonnull align 8 dereferenceable(880) %3, ptr noundef @_ZTT15colvarbias_meta) #14
  %4 = getelementptr inbounds i8, ptr %3, i64 1632
  call void @_ZN13colvarbias_tiD2Ev(ptr noundef nonnull align 8 dereferenceable(72) %4, ptr noundef getelementptr inbounds ([12 x ptr], ptr @_ZTT15colvarbias_meta, i64 0, i64 8)) #14
  %5 = getelementptr inbounds i8, ptr %3, i64 880
  call void @_ZN10colvarbiasD2Ev(ptr noundef nonnull align 8 dereferenceable(312) %5, ptr noundef getelementptr inbounds ([12 x ptr], ptr @_ZTT15colvarbias_meta, i64 0, i64 5)) #14
  %6 = getelementptr inbounds i8, ptr %3, i64 1512
  call void @_ZN10colvardepsD2Ev(ptr noundef nonnull align 8 dereferenceable(120) %6) #14
  %7 = getelementptr inbounds i8, ptr %3, i64 1192
  call void @_ZN11colvarparseD2Ev(ptr noundef nonnull align 8 dereferenceable(320) %7) #14
  ret void
}

; Function Attrs: mustprogress nounwind uwtable
define void @_ZN15colvarbias_metaD0Ev(ptr noundef nonnull align 8 dereferenceable(880) %0) unnamed_addr #1 align 2 {
  %2 = alloca ptr, align 8
  store ptr %0, ptr %2, align 8
  %3 = load ptr, ptr %2, align 8
  call void @_ZN15colvarbias_metaD1Ev(ptr noundef nonnull align 8 dereferenceable(880) %3) #14
  call void @_ZdlPv(ptr noundef %3) #15
  ret void
}

; Function Attrs: nounwind uwtable
define void @_ZTv0_n184_N15colvarbias_metaD0Ev(ptr noundef %0) unnamed_addr #5 align 2 {
  %2 = alloca ptr, align 8
  store ptr %0, ptr %2, align 8
  %3 = load ptr, ptr %2, align 8
  %4 = load ptr, ptr %3, align 8
  %5 = getelementptr inbounds i8, ptr %4, i64 -184
  %6 = load i64, ptr %5, align 8
  %7 = getelementptr inbounds i8, ptr %3, i64 %6
  tail call void @_ZN15colvarbias_metaD0Ev(ptr noundef nonnull align 8 dereferenceable(880) %7) #14
  ret void
}